target datalayout = "e-m:e-p270:32:32-p271:32:32-p272:64:64-i64:64-i128:128-f80:128-n8:16:32:64-S128"
target triple = "x86_64-pc-linux-gnu"

%"class.sat::literal" = type { i32 }
%"class.pb::pbc" = type <{ %"class.pb::constraint", i32, i32, i32, [0 x %"struct.std::pair"], [4 x i8] }>
%"class.pb::constraint" = type { ptr, i32, i8, %"class.sat::literal", %"class.sat::literal", i32, i32, i32, i64, i8, i32, i8, i32 }
%"struct.std::pair" = type { i32, %"class.sat::literal" }

@.str.1 = private unnamed_addr constant [105 x i8] c"generated/home/dtcxzyw/WorkSpace/Projects/compilers/llvm-opt-benchmark/bench/z3/z3/src/sat/smt/pb_pb.cpp\00", align 1
@.str.2 = private unnamed_addr constant [45 x i8] c"Failed to verify: w + m_wlits[i].first >= w\0A\00", align 1
@.str.3 = private unnamed_addr constant [39 x i8] c"Failed to verify: w >= m_k && m_k > 0\0A\00", align 1

; Function Attrs: inlinehint mustprogress nounwind uwtable
define linkonce_odr noundef nonnull align 4 dereferenceable(4) ptr @_ZSt3minIjERKT_S2_S2_(ptr noundef nonnull align 4 dereferenceable(4) %0, ptr noundef nonnull align 4 dereferenceable(4) %1) #8 comdat {
  %3 = alloca ptr, align 8
  %4 = alloca ptr, align 8
  %5 = alloca ptr, align 8
  store ptr %0, ptr %4, align 8, !tbaa !49
  store ptr %1, ptr %5, align 8, !tbaa !49
  %6 = load ptr, ptr %5, align 8, !tbaa !49
  %7 = load i32, ptr %6, align 4, !tbaa !10
  %8 = load ptr, ptr %4, align 8, !tbaa !49
  %9 = load i32, ptr %8, align 4, !tbaa !10
  %10 = icmp ult i32 %7, %9
  br i1 %10, label %11, label %13

11:                                               ; preds = %2
  %12 = load ptr, ptr %5, align 8, !tbaa !49
  store ptr %12, ptr %3, align 8
  br label %15

13:                                               ; preds = %2
  %14 = load ptr, ptr %4, align 8, !tbaa !49
  store ptr %14, ptr %3, align 8
  br label %15

15:                                               ; preds = %13, %11
  %16 = load ptr, ptr %3, align 8
  ret ptr %16
}

; Function Attrs: inlinehint mustprogress nounwind uwtable
define linkonce_odr noundef nonnull align 4 dereferenceable(4) ptr @_ZSt3maxIjERKT_S2_S2_(ptr noundef nonnull align 4 dereferenceable(4) %0, ptr noundef nonnull align 4 dereferenceable(4) %1) #8 comdat {
  %3 = alloca ptr, align 8
  %4 = alloca ptr, align 8
  %5 = alloca ptr, align 8
  store ptr %0, ptr %4, align 8, !tbaa !49
  store ptr %1, ptr %5, align 8, !tbaa !49
  %6 = load ptr, ptr %4, align 8, !tbaa !49
  %7 = load i32, ptr %6, align 4, !tbaa !10
  %8 = load ptr, ptr %5, align 8, !tbaa !49
  %9 = load i32, ptr %8, align 4, !tbaa !10
  %10 = icmp ult i32 %7, %9
  br i1 %10, label %11, label %13

11:                                               ; preds = %2
  %12 = load ptr, ptr %5, align 8, !tbaa !49
  store ptr %12, ptr %3, align 8
  br label %15

13:                                               ; preds = %2
  %14 = load ptr, ptr %4, align 8, !tbaa !49
  store ptr %14, ptr %3, align 8
  br label %15

15:                                               ; preds = %13, %11
  %16 = load ptr, ptr %3, align 8
  ret ptr %16
}

; Function Attrs: mustprogress nounwind uwtable
define linkonce_odr hidden void @_ZN3sat7literal3negEv(ptr noundef nonnull align 4 dereferenceable(4) %0) #4 comdat align 2 {
  %2 = alloca ptr, align 8
  store ptr %0, ptr %2, align 8, !tbaa !61
  %3 = load ptr, ptr %2, align 8
  %4 = getelementptr inbounds nuw %"class.sat::literal", ptr %3, i32 0, i32 0
  %5 = load i32, ptr %4, align 4, !tbaa !63
  %6 = xor i32 %5, 1
  %7 = getelementptr inbounds nuw %"class.sat::literal", ptr %3, i32 0, i32 0
  store i32 %6, ptr %7, align 4, !tbaa !63
  ret void
}

; Function Attrs: mustprogress uwtable
define hidden void @_ZN2pb3pbc6negateEv(ptr noundef nonnull align 8 dereferenceable(76) %0) unnamed_addr #5 align 2 {
  %2 = alloca ptr, align 8
  %3 = alloca i32, align 4
  %4 = alloca i32, align 4
  %5 = alloca i32, align 4
  %6 = alloca i32, align 4
  store ptr %0, ptr %2, align 8, !tbaa !8
  %7 = load ptr, ptr %2, align 8
  %8 = getelementptr inbounds nuw %"class.pb::constraint", ptr %7, i32 0, i32 3
  call void @_ZN3sat7literal3negEv(ptr noundef nonnull align 4 dereferenceable(4) %8)
  call void @llvm.lifetime.start.p0(i64 4, ptr %3) #3
  store i32 0, ptr %3, align 4, !tbaa !10
  call void @llvm.lifetime.start.p0(i64 4, ptr %4) #3
  store i32 0, ptr %4, align 4, !tbaa !10
  call void @llvm.lifetime.start.p0(i64 4, ptr %5) #3
  store i32 0, ptr %5, align 4, !tbaa !10
  br label %9

9:                                                ; preds = %48, %1
  %10 = load i32, ptr %5, align 4, !tbaa !10
  %11 = getelementptr inbounds nuw %"class.pb::constraint", ptr %7, i32 0, i32 7
  %12 = load i32, ptr %11, align 8, !tbaa !41
  %13 = icmp ult i32 %10, %12
  br i1 %13, label %15, label %14

14:                                               ; preds = %9
  call void @llvm.lifetime.end.p0(i64 4, ptr %5) #3
  br label %51

15:                                               ; preds = %9
  %16 = getelementptr inbounds nuw %"class.pb::pbc", ptr %7, i32 0, i32 4
  %17 = load i32, ptr %5, align 4, !tbaa !10
  %18 = zext i32 %17 to i64
  %19 = getelementptr inbounds nuw [0 x %"struct.std::pair"], ptr %16, i64 0, i64 %18
  %20 = getelementptr inbounds nuw %"struct.std::pair", ptr %19, i32 0, i32 1
  call void @_ZN3sat7literal3negEv(ptr noundef nonnull align 4 dereferenceable(4) %20)
  %21 = load i32, ptr %3, align 4, !tbaa !10
  %22 = getelementptr inbounds nuw %"class.pb::pbc", ptr %7, i32 0, i32 4
  %23 = load i32, ptr %5, align 4, !tbaa !10
  %24 = zext i32 %23 to i64
  %25 = getelementptr inbounds nuw [0 x %"struct.std::pair"], ptr %22, i64 0, i64 %24
  %26 = getelementptr inbounds nuw %"struct.std::pair", ptr %25, i32 0, i32 0
  %27 = load i32, ptr %26, align 4, !tbaa !26
  %28 = add i32 %21, %27
  %29 = load i32, ptr %3, align 4, !tbaa !10
  %30 = icmp uge i32 %28, %29
  br i1 %30, label %32, label %31

31:                                               ; preds = %15
  call void @_Z26notify_assertion_violationPKciS0_(ptr noundef @.str.1, i32 noundef 63, ptr noundef @.str.2)
  call void @_Z18invoke_exit_actionj(i32 noundef 114)
  br label %32

32:                                               ; preds = %31, %15
  %33 = getelementptr inbounds nuw %"class.pb::pbc", ptr %7, i32 0, i32 4
  %34 = load i32, ptr %5, align 4, !tbaa !10
  %35 = zext i32 %34 to i64
  %36 = getelementptr inbounds nuw [0 x %"struct.std::pair"], ptr %33, i64 0, i64 %35
  %37 = getelementptr inbounds nuw %"struct.std::pair", ptr %36, i32 0, i32 0
  %38 = load i32, ptr %37, align 4, !tbaa !26
  %39 = load i32, ptr %3, align 4, !tbaa !10
  %40 = add i32 %39, %38
  store i32 %40, ptr %3, align 4, !tbaa !10
  %41 = getelementptr inbounds nuw %"class.pb::pbc", ptr %7, i32 0, i32 4
  %42 = load i32, ptr %5, align 4, !tbaa !10
  %43 = zext i32 %42 to i64
  %44 = getelementptr inbounds nuw [0 x %"struct.std::pair"], ptr %41, i64 0, i64 %43
  %45 = getelementptr inbounds nuw %"struct.std::pair", ptr %44, i32 0, i32 0
  %46 = call noundef nonnull align 4 dereferenceable(4) ptr @_ZSt3maxIjERKT_S2_S2_(ptr noundef nonnull align 4 dereferenceable(4) %4, ptr noundef nonnull align 4 dereferenceable(4) %45)
  %47 = load i32, ptr %46, align 4, !tbaa !10
  store i32 %47, ptr %4, align 4, !tbaa !10
  br label %48

48:                                               ; preds = %32
  %49 = load i32, ptr %5, align 4, !tbaa !10
  %50 = add i32 %49, 1
  store i32 %50, ptr %5, align 4, !tbaa !10
  br label %9, !llvm.loop !59

51:                                               ; preds = %14
  %52 = load i32, ptr %3, align 4, !tbaa !10
  %53 = getelementptr inbounds nuw %"class.pb::constraint", ptr %7, i32 0, i32 12
  %54 = load i32, ptr %53, align 4, !tbaa !46
  %55 = sub i32 %52, %54
  %56 = add i32 %55, 1
  %57 = getelementptr inbounds nuw %"class.pb::constraint", ptr %7, i32 0, i32 12
  store i32 %56, ptr %57, align 4, !tbaa !46
  %58 = load i32, ptr %4, align 4, !tbaa !10
  %59 = getelementptr inbounds nuw %"class.pb::constraint", ptr %7, i32 0, i32 12
  %60 = load i32, ptr %59, align 4, !tbaa !46
  %61 = icmp ugt i32 %58, %60
  br i1 %61, label %62, label %87

62:                                               ; preds = %51
  call void @llvm.lifetime.start.p0(i64 4, ptr %6) #3
  store i32 0, ptr %6, align 4, !tbaa !10
  br label %63

63:                                               ; preds = %83, %62
  %64 = load i32, ptr %6, align 4, !tbaa !10
  %65 = getelementptr inbounds nuw %"class.pb::constraint", ptr %7, i32 0, i32 7
  %66 = load i32, ptr %65, align 8, !tbaa !41
  %67 = icmp ult i32 %64, %66
  br i1 %67, label %69, label %68

68:                                               ; preds = %63
  call void @llvm.lifetime.end.p0(i64 4, ptr %6) #3
  br label %86

69:                                               ; preds = %63
  %70 = getelementptr inbounds nuw %"class.pb::constraint", ptr %7, i32 0, i32 12
  %71 = getelementptr inbounds nuw %"class.pb::pbc", ptr %7, i32 0, i32 4
  %72 = load i32, ptr %6, align 4, !tbaa !10
  %73 = zext i32 %72 to i64
  %74 = getelementptr inbounds nuw [0 x %"struct.std::pair"], ptr %71, i64 0, i64 %73
  %75 = getelementptr inbounds nuw %"struct.std::pair", ptr %74, i32 0, i32 0
  %76 = call noundef nonnull align 4 dereferenceable(4) ptr @_ZSt3minIjERKT_S2_S2_(ptr noundef nonnull align 4 dereferenceable(4) %70, ptr noundef nonnull align 4 dereferenceable(4) %75)
  %77 = load i32, ptr %76, align 4, !tbaa !10
  %78 = getelementptr inbounds nuw %"class.pb::pbc", ptr %7, i32 0, i32 4
  %79 = load i32, ptr %6, align 4, !tbaa !10
  %80 = zext i32 %79 to i64
  %81 = getelementptr inbounds nuw [0 x %"struct.std::pair"], ptr %78, i64 0, i64 %80
  %82 = getelementptr inbounds nuw %"struct.std::pair", ptr %81, i32 0, i32 0
  store i32 %77, ptr %82, align 4, !tbaa !26
  br label %83

83:                                               ; preds = %69
  %84 = load i32, ptr %6, align 4, !tbaa !10
  %85 = add i32 %84, 1
  store i32 %85, ptr %6, align 4, !tbaa !10
  br label %63, !llvm.loop !60

86:                                               ; preds = %68
  br label %87

87:                                               ; preds = %86, %51
  %88 = load i32, ptr %3, align 4, !tbaa !10
  %89 = getelementptr inbounds nuw %"class.pb::constraint", ptr %7, i32 0, i32 12
  %90 = load i32, ptr %89, align 4, !tbaa !46
  %91 = icmp uge i32 %88, %90
  br i1 %91, label %92, label %96

92:                                               ; preds = %87
  %93 = getelementptr inbounds nuw %"class.pb::constraint", ptr %7, i32 0, i32 12
  %94 = load i32, ptr %93, align 4, !tbaa !46
  %95 = icmp ugt i32 %94, 0
  br i1 %95, label %97, label %96

96:                                               ; preds = %92, %87
  call void @_Z26notify_assertion_violationPKciS0_(ptr noundef @.str.1, i32 noundef 72, ptr noundef @.str.3)
  call void @_Z18invoke_exit_actionj(i32 noundef 114)
  br label %97

97:                                               ; preds = %96, %92
  call void @llvm.lifetime.end.p0(i64 4, ptr %4) #3
  call void @llvm.lifetime.end.p0(i64 4, ptr %3) #3
  ret void
}