; Function Attrs: mustprogress uwtable
define hidden void @_ZN2pb3pbc6negateEv(ptr noundef nonnull align 8 captures(none) dereferenceable(76) %0) unnamed_addr #4 align 2 {
  %2 = getelementptr inbounds nuw i8, ptr %0, i64 16
  %3 = load i32, ptr %2, align 8, !tbaa !45
  %4 = xor i32 %3, 1
  store i32 %4, ptr %2, align 8, !tbaa !45
  %5 = getelementptr inbounds nuw i8, ptr %0, i64 32
  %6 = load i32, ptr %5, align 8, !tbaa !20
  %.not = icmp eq i32 %6, 0
  br i1 %.not, label %._crit_edge, label %.lr.ph

.lr.ph:                                           ; preds = %1
  %7 = getelementptr inbounds nuw i8, ptr %0, i64 76
  br label %15

._crit_edge:                                      ; preds = %24, %1
  %.024.lcssa = phi i32 [ 0, %1 ], [ %.sroa.speculated, %24 ]
  %.016.lcssa = phi i32 [ 0, %1 ], [ %27, %24 ]
  %.lcssa = phi i32 [ 0, %1 ], [ %25, %24 ]
  %8 = getelementptr inbounds nuw i8, ptr %0, i64 60
  %9 = load i32, ptr %8, align 4, !tbaa !25
  %10 = sub i32 %.016.lcssa, %9
  %11 = add i32 %10, 1
  store i32 %11, ptr %8, align 4, !tbaa !25
  %12 = icmp ugt i32 %.024.lcssa, %11
  %13 = icmp ne i32 %.lcssa, 0
  %or.cond = and i1 %12, %13
  br i1 %or.cond, label %.lr.ph32, label %.loopexit

.lr.ph32:                                         ; preds = %._crit_edge
  %14 = getelementptr inbounds nuw i8, ptr %0, i64 76
  %wide.trip.count = zext i32 %.lcssa to i64
  br label %30

15:                                               ; preds = %.lr.ph, %24
  %16 = phi i32 [ %6, %.lr.ph ], [ %25, %24 ]
  %indvars.iv = phi i64 [ 0, %.lr.ph ], [ %indvars.iv.next, %24 ]
  %.01627 = phi i32 [ 0, %.lr.ph ], [ %27, %24 ]
  %.02426 = phi i32 [ 0, %.lr.ph ], [ %.sroa.speculated, %24 ]
  %17 = getelementptr inbounds nuw [0 x %"struct.std::pair"], ptr %7, i64 0, i64 %indvars.iv
  %18 = getelementptr inbounds nuw i8, ptr %17, i64 4
  %19 = load i32, ptr %18, align 8, !tbaa !45
  %20 = xor i32 %19, 1
  store i32 %20, ptr %18, align 8, !tbaa !45
  %21 = load i32, ptr %17, align 4, !tbaa !32
  %22 = xor i32 %.01627, -1
  %.not19 = icmp ugt i32 %21, %22
  br i1 %.not19, label %23, label %24

23:                                               ; preds = %15
  tail call void @_Z26notify_assertion_violationPKciS0_(ptr noundef nonnull @.str.1, i32 noundef 63, ptr noundef nonnull @.str.2)
  tail call void @_Z18invoke_exit_actionj(i32 noundef 114)
  %.pre = load i32, ptr %17, align 4, !tbaa !32
  %.pre39 = load i32, ptr %5, align 8, !tbaa !20
  br label %24

24:                                               ; preds = %23, %15
  %25 = phi i32 [ %.pre39, %23 ], [ %16, %15 ]
  %26 = phi i32 [ %.pre, %23 ], [ %21, %15 ]
  %27 = add i32 %26, %.01627
  %.sroa.speculated = tail call i32 @llvm.umax.i32(i32 %.02426, i32 %26)
  %indvars.iv.next = add nuw nsw i64 %indvars.iv, 1
  %28 = zext i32 %25 to i64
  %29 = icmp samesign ult i64 %indvars.iv.next, %28
  br i1 %29, label %15, label %._crit_edge, !llvm.loop !46

30:                                               ; preds = %.lr.ph32, %30
  %indvars.iv36 = phi i64 [ 0, %.lr.ph32 ], [ %indvars.iv.next37, %30 ]
  %31 = getelementptr inbounds nuw [0 x %"struct.std::pair"], ptr %14, i64 0, i64 %indvars.iv36
  %32 = load i32, ptr %31, align 4, !tbaa !9
  %33 = tail call i32 @llvm.umin.i32(i32 %32, i32 %11)
  store i32 %33, ptr %31, align 4, !tbaa !32
  %indvars.iv.next37 = add nuw nsw i64 %indvars.iv36, 1
  %exitcond.not = icmp eq i64 %indvars.iv.next37, %wide.trip.count
  br i1 %exitcond.not, label %.loopexit, label %30, !llvm.loop !47

.loopexit:                                        ; preds = %30, %._crit_edge
  %or.cond.not = icmp ult i32 %10, %.016.lcssa
  br i1 %or.cond.not, label %35, label %34

34:                                               ; preds = %.loopexit
  tail call void @_Z26notify_assertion_violationPKciS0_(ptr noundef nonnull @.str.1, i32 noundef 72, ptr noundef nonnull @.str.3)
  tail call void @_Z18invoke_exit_actionj(i32 noundef 114)
  br label %35

35:                                               ; preds = %.loopexit, %34
  ret void
}